(dp1
S'ttffile'
p2
S'font.ttf'
p3
sS'name'
p4
VStandardBook-Regular
p5
sS'cw'
p6
(lp7
I206
aF500
aF500
aF500
aF500
aF500
aF500
aF500
aF500
aF500
aF500
aF500
aF500
aF500
aF500
aF500
aF500
aF500
aF500
aF500
aF500
aF500
aF500
aF500
aF500
aF500
aF500
aF500
aF500
aF500
aF500
aF500
aI255
aI234
aI428
aI666
aI624
aI913
aI670
aI228
aI330
aI330
aI620
aI657
aI234
aI357
aI234
aI542
aI666
aI309
aI566
aI646
aI641
aI616
aI621
aI510
aI666
aI606
aI234
aI234
aI511
aI507
aI511
aI576
aI822
aI696
aI783
aI773
aI773
aI696
aI666
aI864
aI831
aI312
aI580
aI773
aI630
aI897
aI821
aI828
aI698
aI854
aI724
aI696
aI660
aI786
aI711
aI1050
aI745
aI730
aI683
aI312
aI542
aI312
aI539
aI402
aI273
aI545
aI617
aI532
aI621
aI555
aI330
aI626
aI588
aI270
aI279
aI552
aI270
aI882
aI588
aI584
aI629
aI629
aI393
aI498
aI342
aI579
aI477
aI759
aI520
aI490
aI482
aI277
aI270
aI277
aI401
aF500
aF500
aF500
aF500
aF500
aF500
aF500
aF500
aF500
aF500
aF500
aF500
aF500
aF500
aF500
aF500
aF500
aF500
aF500
aF500
aF500
aF500
aF500
aF500
aF500
aF500
aF500
aF500
aF500
aF500
aF500
aF500
aF500
aF500
aI234
aI532
aI618
aI512
aI690
aI270
aI637
aI447
aI834
aI472
aI503
aI603
aF500
aI834
aI414
aI348
aI657
aI378
aI409
aI273
aF500
aI666
aI234
aI340
aI287
aI476
aI503
aI806
aI804
aI904
aI576
aI696
aI696
aI696
aI696
aI696
aI696
aI923
aI773
aI696
aI696
aI696
aI696
aI312
aI312
aI302
aI312
aI775
aI821
aI828
aI828
aI828
aI828
aI828
aI523
aI828
aI786
aI786
aI786
aI786
aI730
aI698
aI618
aI545
aI545
aI545
aI545
aI545
aI545
aI882
aI532
aI555
aI555
aI555
aI555
aI270
aI270
aI270
aI270
aI595
aI588
aI584
aI584
aI584
aI584
aI584
aI657
aI584
aI579
aI579
aI579
aI579
aI499
aI629
aI484
aF500
aF500
aF500
aF500
aF500
aF500
aF500
aF500
aF500
aF500
aF500
aF500
aF500
aF500
aF500
aF500
aF500
aF500
aF500
aF500
aF500
aF500
aF500
aF500
aF500
aF500
aF500
aF500
aF500
aF500
aF500
aF500
aF500
aF500
aF500
aF500
aF500
aF500
aF500
aF500
aF500
aF500
aF500
aF500
aF500
aF500
aF500
aF500
aF500
aI270
aF500
aF500
aF500
aF500
aF500
aF500
aF500
aF500
aF500
aF500
aF500
aF500
aF500
aF500
aF500
aF500
aF500
aF500
aF500
aF500
aF500
aF500
aF500
aF500
aF500
aF500
aF500
aF500
aF500
aF500
aF500
aF500
aF500
aF500
aF500
aF500
aF500
aF500
aF500
aF500
aF500
aF500
aF500
aF500
aF500
aF500
aF500
aF500
aF500
aF500
aF500
aF500
aF500
aF500
aF500
aF500
aF500
aF500
aF500
aF500
aF500
aF500
aF500
aF500
aF500
aF500
aF500
aF500
aF500
aF500
aF500
aF500
aF500
aF500
aF500
aF500
aF500
aF500
aF500
aF500
aF500
aF500
aF500
aF500
aF500
aF500
aF500
aF500
aF500
aF500
aF500
aF500
aF500
aF500
aF500
aF500
aF500
aF500
aF500
aF500
aF500
aF500
aF500
aF500
aF500
aF500
aF500
aF500
aF500
aF500
aF500
aF500
aF500
aF500
aF500
aF500
aF500
aF500
aF500
aF500
aF500
aF500
aF500
aF500
aF500
aF500
aF500
aF500
aF500
aF500
aF500
aF500
aF500
aF500
aF500
aF500
aF500
aF500
aF500
aF500
aF500
aF500
aF500
aF500
aF500
aF500
aF500
aF500
aF500
aF500
aF500
aF500
aF500
aF500
aF500
aF500
aF500
aF500
aF500
aF500
aF500
aF500
aF500
aF500
aF500
aF500
aF500
aF500
aF500
aF500
aF500
aF500
aF500
aF500
aF500
aF500
aF500
aF500
aF500
aF500
aF500
aF500
aF500
aF500
aF500
aF500
aF500
aF500
aF500
aF500
aF500
aF500
aF500
aF500
aF500
aF500
aF500
aF500
aF500
aF500
aF500
aF500
aF500
aF500
aF500
aF500
aF500
aF500
aF500
aF500
aF500
aF500
aF500
aF500
aF500
aF500
aF500
aF500
aF500
aF500
aF500
aF500
aF500
aF500
aF500
aF500
aF500
aF500
aF500
aF500
aF500
aF500
aF500
aF500
aF500
aF500
aF500
aF500
aF500
aF500
aF500
aF500
aF500
aF500
aF500
aF500
aF500
aF500
aF500
aF500
aF500
aF500
aF500
aF500
aF500
aF500
aF500
aF500
aF500
aF500
aF500
aF500
aF500
aF500
aF500
aF500
aF500
aF500
aF500
aF500
aF500
aF500
aF500
aF500
aF500
aF500
aF500
aF500
aF500
aF500
aF500
aF500
aF500
aF500
aF500
aF500
aF500
aF500
aF500
aF500
aF500
aF500
aF500
aF500
aF500
aF500
aF500
aF500
aF500
aF500
aF500
aF500
aF500
aF500
aF500
aF500
aF500
aF500
aF500
aF500
aF500
aF500
aF500
aF500
aF500
aF500
aF500
aF500
aF500
aF500
aF500
aF500
aF500
aF500
aF500
aF500
aF500
aF500
aF500
aF500
aF500
aF500
aF500
aF500
aF500
aF500
aF500
aF500
aF500
aF500
aF500
aF500
aF500
aF500
aF500
aF500
aF500
aF500
aF500
aF500
aF500
aF500
aF500
aF500
aF500
aF500
aF500
aF500
aF500
aF500
aF500
aF500
aF500
aF500
aF500
aF500
aF500
aF500
aF500
aF500
aF500
aF500
aF500
aF500
aF500
aF500
aF500
aF500
aF500
aF500
aF500
aF500
aF500
aF500
aF500
aF500
aF500
aF500
aF500
aF500
aF500
aF500
aF500
aF500
aF500
aF500
aF500
aF500
aF500
aF500
aF500
aF500
aF500
aF500
aI405
aI405
aF500
aF500
aF500
aF500
aF500
aF500
aF500
aF500
aF500
aF500
aF500
aF500
aF500
aF500
aF500
aF500
aI424
aI225
aI249
aI297
aI389
aI434
aF500
aF500
aF500
aF500
aF500
aF500
aF500
aF500
aF500
aF500
aF500
aF500
aF500
aF500
aF500
aF500
aF500
aF500
aF500
aF500
aF500
aF500
aF500
aF500
aF500
aF500
aF500
aF500
aF500
aF500
aF500
aF500
aF500
aF500
aF500
aF500
aF500
aF500
aF500
aF500
aF500
aF500
aF500
aF500
aF500
aF500
aF500
aF500
aF500
aF500
aF500
aF500
aF500
aF500
aF500
aF500
aF500
aF500
aF500
aF500
aF500
aF500
aF500
aF500
aF500
aF500
aF500
aF500
aF500
aF500
aF500
aF500
aF500
aF500
aF500
aF500
aF500
aF500
aF500
aF500
aF500
aF500
aF500
aF500
aF500
aF500
aF500
aF500
aF500
aF500
aF500
aF500
aF500
aF500
aF500
aF500
aF500
aF500
aF500
aF500
aF500
aF500
aF500
aF500
aF500
aF500
aF500
aF500
aF500
aF500
aF500
aF500
aF500
aF500
aF500
aF500
aF500
aF500
aF500
aF500
aF500
aF500
aF500
aF500
aF500
aF500
aF500
aF500
aF500
aF500
aF500
aF500
aF500
aF500
aF500
aF500
aF500
aF500
aF500
aF500
aF500
aF500
aF500
aF500
aF500
aF500
aF500
aF500
aF500
aF500
aF500
aF500
aF500
aF500
aF500
aF500
aF500
aF500
aF500
aF500
aF500
aF500
aF500
aF500
aF500
aF500
aF500
aF500
aF500
aF500
aF500
aF500
aF500
aF500
aF500
aF500
aF500
aF500
aF500
aF500
aF500
aF500
aF500
aF500
aF500
aF500
aF500
aF500
aF500
aF500
aF500
aF500
aF500
aF500
aF500
aF500
aF500
aF500
aF500
aF500
aF500
aF500
aF500
aF500
aF500
aF500
aF500
aF500
aF500
aF500
aF500
aF500
aF500
aF500
aF500
aF500
aF500
aF500
aF500
aF500
aF500
aF500
aI588
aF500
aF500
aF500
aF500
aF500
aF500
aF500
aF500
aF500
aF500
aF500
aF500
aF500
aF500
aF500
aF500
aF500
aF500
aF500
aF500
aF500
aF500
aF500
aF500
aF500
aF500
aF500
aF500
aF500
aF500
aF500
aF500
aF500
aF500
aF500
aF500
aF500
aF500
aF500
aF500
aF500
aF500
aF500
aF500
aF500
aF500
aF500
aF500
aF500
aF500
aF500
aF500
aF500
aF500
aF500
aF500
aF500
aF500
aF500
aF500
aF500
aF500
aF500
aF500
aF500
aF500
aF500
aF500
aF500
aF500
aF500
aF500
aF500
aF500
aF500
aF500
aF500
aF500
aF500
aF500
aF500
aF500
aF500
aF500
aF500
aF500
aF500
aF500
aF500
aF500
aF500
aF500
aF500
aF500
aF500
aF500
aF500
aF500
aF500
aF500
aF500
aF500
aF500
aF500
aF500
aF500
aF500
aF500
aF500
aF500
aF500
aF500
aF500
aF500
aF500
aF500
aF500
aF500
aF500
aF500
aF500
aF500
aF500
aF500
aF500
aF500
aF500
aF500
aF500
aF500
aF500
aF500
aF500
aF500
aF500
aF500
aF500
aF500
aF500
aF500
aF500
aF500
aF500
aF500
aF500
aF500
aF500
aF500
aF500
aF500
aF500
aF500
aF500
aF500
aF500
aF500
aF500
aF500
aF500
aF500
aF500
aF500
aF500
aF500
aF500
aF500
aF500
aF500
aF500
aF500
aF500
aF500
aF500
aF500
aF500
aF500
aF500
aF500
aF500
aF500
aF500
aF500
aF500
aF500
aF500
aF500
aF500
aF500
aF500
aF500
aF500
aF500
aF500
aF500
aF500
aF500
aF500
aF500
aF500
aF500
aF500
aF500
aF500
aF500
aF500
aF500
aF500
aF500
aF500
aF500
aF500
aF500
aF500
aF500
aF500
aF500
aF500
aF500
aF500
aF500
aF500
aF500
aF500
aF500
aF500
aF500
aF500
aF500
aF500
aF500
aF500
aF500
aF500
aF500
aF500
aF500
aF500
aF500
aF500
aF500
aF500
aF500
aF500
aF500
aF500
aF500
aF500
aF500
aF500
aF500
aF500
aF500
aF500
aF500
aF500
aF500
aF500
aF500
aF500
aF500
aF500
aF500
aF500
aF500
aF500
aF500
aF500
aF500
aF500
aF500
aF500
aF500
aF500
aF500
aF500
aF500
aF500
aF500
aF500
aF500
aF500
aF500
aF500
aF500
aF500
aF500
aF500
aF500
aF500
aF500
aF500
aF500
aF500
aF500
aF500
aF500
aF500
aF500
aF500
aF500
aF500
aF500
aF500
aF500
aF500
aF500
aF500
aF500
aF500
aF500
aF500
aF500
aF500
aF500
aF500
aF500
aF500
aF500
aF500
aF500
aF500
aF500
aF500
aF500
aF500
aF500
aF500
aF500
aF500
aF500
aF500
aF500
aF500
aF500
aF500
aF500
aF500
aF500
aF500
aF500
aF500
aF500
aF500
aF500
aF500
aF500
aF500
aF500
aF500
aF500
aF500
aF500
aF500
aF500
aF500
aF500
aF500
aF500
aF500
aF500
aF500
aF500
aF500
aF500
aF500
aF500
aF500
aF500
aF500
aF500
aF500
aF500
aF500
aF500
aF500
aF500
aF500
aF500
aF500
aF500
aF500
aF500
aF500
aF500
aF500
aF500
aF500
aF500
aF500
aF500
aF500
aF500
aF500
aF500
aF500
aF500
aF500
aF500
aF500
aF500
aF500
aF500
aF500
aF500
aF500
aF500
aF500
aF500
aF500
aF500
aF500
aF500
aF500
aF500
aF500
aF500
aF500
aF500
aF500
aF500
aF500
aF500
aF500
aF500
aF500
aF500
aF500
aF500
aF500
aF500
aF500
aF500
aF500
aF500
aF500
aF500
aF500
aF500
aF500
aF500
aF500
aF500
aF500
aF500
aF500
aF500
aF500
aF500
aF500
aF500
aF500
aF500
aF500
aF500
aF500
aF500
aF500
aF500
aF500
aF500
aF500
aF500
aF500
aF500
aF500
aF500
aF500
aF500
aF500
aF500
aF500
aF500
aF500
aF500
aF500
aF500
aF500
aF500
aF500
aF500
aF500
aF500
aF500
aF500
aF500
aF500
aF500
aF500
aF500
aF500
aF500
aF500
aF500
aF500
aF500
aF500
aF500
aF500
aF500
aF500
aF500
aF500
aF500
aF500
aF500
aF500
aF500
aF500
aF500
aF500
aF500
aF500
aF500
aF500
aF500
aF500
aF500
aF500
aF500
aF500
aF500
aF500
aF500
aF500
aF500
aF500
aF500
aF500
aF500
aF500
aF500
aF500
aF500
aF500
aF500
aF500
aF500
aF500
aF500
aF500
aF500
aF500
aF500
aF500
aF500
aF500
aF500
aF500
aF500
aF500
aF500
aF500
aF500
aF500
aF500
aF500
aF500
aF500
aF500
aF500
aF500
aF500
aF500
aF500
aF500
aF500
aF500
aF500
aF500
aF500
aF500
aF500
aF500
aF500
aF500
aF500
aF500
aF500
aF500
aF500
aF500
aF500
aF500
aF500
aF500
aF500
aF500
aF500
aF500
aF500
aF500
aF500
aF500
aF500
aF500
aF500
aF500
aF500
aF500
aF500
aF500
aF500
aF500
aF500
aF500
aF500
aF500
aF500
aF500
aF500
aF500
aF500
aF500
aF500
aF500
aF500
aF500
aF500
aF500
aF500
aF500
aF500
aF500
aF500
aF500
aF500
aF500
aF500
aF500
aF500
aF500
aF500
aF500
aF500
aF500
aF500
aF500
aF500
aF500
aF500
aF500
aF500
aF500
aF500
aF500
aF500
aF500
aF500
aF500
aF500
aF500
aF500
aF500
aF500
aF500
aF500
aF500
aF500
aF500
aF500
aF500
aF500
aF500
aF500
aF500
aF500
aF500
aF500
aF500
aF500
aF500
aF500
aF500
aF500
aF500
aF500
aF500
aF500
aF500
aF500
aF500
aF500
aF500
aF500
aF500
aF500
aF500
aF500
aF500
aF500
aF500
aF500
aF500
aF500
aF500
aF500
aF500
aF500
aF500
aF500
aF500
aF500
aF500
aF500
aF500
aF500
aF500
aF500
aF500
aF500
aF500
aF500
aF500
aF500
aF500
aF500
aF500
aF500
aF500
aF500
aF500
aF500
aF500
aF500
aF500
aF500
aF500
aF500
aF500
aF500
aF500
aF500
aF500
aF500
aF500
aF500
aF500
aF500
aF500
aF500
aF500
aF500
aF500
aF500
aF500
aF500
aF500
aF500
aF500
aF500
aF500
aF500
aF500
aF500
aF500
aF500
aF500
aF500
aF500
aF500
aF500
aF500
aF500
aF500
aF500
aF500
aF500
aF500
aF500
aF500
aF500
aF500
aF500
aF500
aF500
aF500
aF500
aF500
aF500
aF500
aF500
aF500
aF500
aF500
aF500
aF500
aF500
aF500
aF500
aF500
aF500
aF500
aF500
aF500
aF500
aF500
aF500
aF500
aF500
aF500
aF500
aF500
aF500
aF500
aF500
aF500
aF500
aF500
aF500
aF500
aF500
aF500
aF500
aF500
aF500
aF500
aF500
aF500
aF500
aF500
aF500
aF500
aF500
aF500
aF500
aF500
aF500
aF500
aF500
aF500
aF500
aF500
aF500
aF500
aF500
aF500
aF500
aF500
aF500
aF500
aF500
aF500
aF500
aF500
aF500
aF500
aF500
aF500
aF500
aF500
aF500
aF500
aF500
aF500
aF500
aF500
aF500
aF500
aF500
aF500
aF500
aF500
aF500
aF500
aF500
aF500
aF500
aF500
aF500
aF500
aF500
aF500
aF500
aF500
aF500
aF500
aF500
aF500
aF500
aF500
aF500
aF500
aF500
aF500
aF500
aF500
aF500
aF500
aF500
aF500
aF500
aF500
aF500
aF500
aF500
aF500
aF500
aF500
aF500
aF500
aF500
aF500
aF500
aF500
aF500
aF500
aF500
aF500
aF500
aF500
aF500
aF500
aF500
aF500
aF500
aF500
aF500
aF500
aF500
aF500
aF500
aF500
aF500
aF500
aF500
aF500
aF500
aF500
aF500
aF500
aF500
aF500
aF500
aF500
aF500
aF500
aF500
aF500
aF500
aF500
aF500
aF500
aF500
aF500
aF500
aF500
aF500
aF500
aF500
aF500
aF500
aF500
aF500
aF500
aF500
aF500
aF500
aF500
aF500
aF500
aF500
aF500
aF500
aF500
aF500
aF500
aF500
aF500
aF500
aF500
aF500
aF500
aF500
aF500
aF500
aF500
aF500
aF500
aF500
aF500
aF500
aF500
aF500
aF500
aF500
aF500
aF500
aF500
aF500
aF500
aF500
aF500
aF500
aF500
aF500
aF500
aF500
aF500
aF500
aF500
aF500
aF500
aF500
aF500
aF500
aF500
aF500
aF500
aF500
aF500
aF500
aF500
aF500
aF500
aF500
aF500
aF500
aF500
aF500
aF500
aF500
aF500
aF500
aF500
aF500
aF500
aF500
aF500
aF500
aF500
aF500
aF500
aF500
aF500
aF500
aF500
aF500
aF500
aF500
aF500
aF500
aF500
aF500
aF500
aF500
aF500
aF500
aF500
aF500
aF500
aF500
aF500
aF500
aF500
aF500
aF500
aF500
aF500
aF500
aF500
aF500
aF500
aF500
aF500
aF500
aF500
aF500
aF500
aF500
aF500
aF500
aF500
aF500
aF500
aF500
aF500
aF500
aF500
aF500
aF500
aF500
aF500
aF500
aF500
aF500
aF500
aF500
aF500
aF500
aF500
aF500
aF500
aF500
aF500
aF500
aF500
aF500
aF500
aF500
aF500
aF500
aF500
aF500
aF500
aF500
aF500
aF500
aF500
aF500
aF500
aF500
aF500
aF500
aF500
aF500
aF500
aF500
aF500
aF500
aF500
aF500
aF500
aF500
aF500
aF500
aF500
aF500
aF500
aF500
aF500
aF500
aF500
aF500
aF500
aF500
aF500
aF500
aF500
aF500
aF500
aF500
aF500
aF500
aF500
aF500
aF500
aF500
aF500
aF500
aF500
aF500
aF500
aF500
aF500
aF500
aF500
aF500
aF500
aF500
aF500
aF500
aF500
aF500
aF500
aF500
aF500
aF500
aF500
aF500
aF500
aF500
aF500
aF500
aF500
aF500
aF500
aF500
aF500
aF500
aF500
aF500
aF500
aF500
aF500
aF500
aF500
aF500
aF500
aF500
aF500
aF500
aF500
aF500
aF500
aF500
aF500
aF500
aF500
aF500
aF500
aF500
aF500
aF500
aF500
aF500
aF500
aF500
aF500
aF500
aF500
aF500
aF500
aF500
aF500
aF500
aF500
aF500
aF500
aF500
aF500
aF500
aF500
aF500
aF500
aF500
aF500
aF500
aF500
aF500
aF500
aF500
aF500
aF500
aF500
aF500
aF500
aF500
aF500
aF500
aF500
aF500
aF500
aF500
aF500
aF500
aF500
aF500
aF500
aF500
aF500
aF500
aF500
aF500
aF500
aF500
aF500
aF500
aF500
aF500
aF500
aF500
aF500
aF500
aF500
aF500
aF500
aF500
aF500
aF500
aF500
aF500
aF500
aF500
aF500
aF500
aF500
aF500
aF500
aF500
aF500
aF500
aF500
aF500
aF500
aF500
aF500
aF500
aF500
aF500
aF500
aF500
aF500
aF500
aF500
aF500
aF500
aF500
aF500
aF500
aF500
aF500
aF500
aF500
aF500
aF500
aF500
aF500
aF500
aF500
aF500
aF500
aF500
aF500
aF500
aF500
aF500
aF500
aF500
aF500
aF500
aF500
aF500
aF500
aF500
aF500
aF500
aF500
aF500
aF500
aF500
aF500
aF500
aF500
aF500
aF500
aF500
aF500
aF500
aF500
aF500
aF500
aF500
aF500
aF500
aF500
aF500
aF500
aF500
aF500
aF500
aF500
aF500
aF500
aF500
aF500
aF500
aF500
aF500
aF500
aF500
aF500
aF500
aF500
aF500
aF500
aF500
aF500
aF500
aF500
aF500
aF500
aF500
aF500
aF500
aF500
aF500
aF500
aF500
aF500
aF500
aF500
aF500
aF500
aF500
aF500
aF500
aF500
aF500
aF500
aF500
aF500
aF500
aF500
aF500
aF500
aF500
aF500
aF500
aF500
aF500
aF500
aF500
aF500
aF500
aF500
aF500
aF500
aF500
aF500
aF500
aF500
aF500
aF500
aF500
aF500
aF500
aF500
aF500
aF500
aF500
aF500
aF500
aF500
aF500
aF500
aF500
aF500
aF500
aF500
aF500
aF500
aF500
aF500
aF500
aF500
aF500
aF500
aF500
aF500
aF500
aF500
aF500
aF500
aF500
aF500
aF500
aF500
aF500
aF500
aF500
aF500
aF500
aF500
aF500
aF500
aF500
aF500
aF500
aF500
aF500
aF500
aF500
aF500
aF500
aF500
aF500
aF500
aF500
aF500
aF500
aF500
aF500
aF500
aF500
aF500
aF500
aF500
aF500
aF500
aF500
aF500
aF500
aF500
aF500
aF500
aF500
aF500
aF500
aF500
aF500
aF500
aF500
aF500
aF500
aF500
aF500
aF500
aF500
aF500
aF500
aF500
aF500
aF500
aF500
aF500
aF500
aF500
aF500
aF500
aF500
aF500
aF500
aF500
aF500
aF500
aF500
aF500
aF500
aF500
aF500
aF500
aF500
aF500
aF500
aF500
aF500
aF500
aF500
aF500
aF500
aF500
aF500
aF500
aF500
aF500
aF500
aF500
aF500
aF500
aF500
aF500
aF500
aF500
aF500
aF500
aF500
aF500
aF500
aF500
aF500
aF500
aF500
aF500
aF500
aF500
aF500
aF500
aF500
aF500
aF500
aF500
aF500
aF500
aF500
aF500
aF500
aF500
aF500
aF500
aF500
aF500
aF500
aF500
aF500
aF500
aF500
aF500
aF500
aF500
aF500
aF500
aF500
aF500
aF500
aF500
aF500
aF500
aF500
aF500
aF500
aF500
aF500
aF500
aF500
aF500
aF500
aF500
aF500
aF500
aF500
aF500
aF500
aF500
aF500
aF500
aF500
aF500
aF500
aF500
aF500
aF500
aF500
aF500
aF500
aF500
aF500
aF500
aF500
aF500
aF500
aF500
aF500
aF500
aF500
aF500
aF500
aF500
aF500
aF500
aF500
aF500
aF500
aF500
aF500
aF500
aF500
aF500
aF500
aF500
aF500
aF500
aF500
aF500
aF500
aF500
aF500
aF500
aF500
aF500
aF500
aF500
aF500
aF500
aF500
aF500
aF500
aF500
aF500
aF500
aF500
aF500
aF500
aF500
aF500
aF500
aF500
aF500
aF500
aF500
aF500
aF500
aF500
aF500
aF500
aF500
aF500
aF500
aF500
aF500
aF500
aF500
aF500
aF500
aF500
aF500
aF500
aF500
aF500
aF500
aF500
aF500
aF500
aF500
aF500
aF500
aF500
aF500
aF500
aF500
aF500
aF500
aF500
aF500
aF500
aF500
aF500
aF500
aF500
aF500
aF500
aF500
aF500
aF500
aF500
aF500
aF500
aF500
aF500
aF500
aF500
aF500
aF500
aF500
aF500
aF500
aF500
aF500
aF500
aF500
aF500
aF500
aF500
aF500
aF500
aF500
aF500
aF500
aF500
aF500
aF500
aF500
aF500
aF500
aF500
aF500
aF500
aF500
aF500
aF500
aF500
aF500
aF500
aF500
aF500
aF500
aF500
aF500
aF500
aF500
aF500
aF500
aF500
aF500
aF500
aF500
aF500
aF500
aF500
aF500
aF500
aF500
aF500
aF500
aF500
aF500
aF500
aF500
aF500
aF500
aF500
aF500
aF500
aF500
aF500
aF500
aF500
aF500
aF500
aF500
aF500
aF500
aF500
aF500
aF500
aF500
aF500
aF500
aF500
aF500
aF500
aF500
aF500
aF500
aF500
aF500
aF500
aF500
aF500
aF500
aF500
aF500
aF500
aF500
aF500
aF500
aF500
aF500
aF500
aF500
aF500
aF500
aF500
aF500
aF500
aF500
aF500
aF500
aF500
aF500
aF500
aF500
aF500
aF500
aF500
aF500
aF500
aF500
aF500
aF500
aF500
aF500
aF500
aF500
aF500
aF500
aF500
aF500
aF500
aF500
aF500
aF500
aF500
aF500
aF500
aF500
aF500
aF500
aF500
aF500
aF500
aF500
aF500
aF500
aF500
aF500
aF500
aF500
aF500
aF500
aF500
aF500
aF500
aF500
aF500
aF500
aF500
aF500
aF500
aF500
aF500
aF500
aF500
aF500
aF500
aF500
aF500
aF500
aF500
aF500
aF500
aF500
aF500
aF500
aF500
aF500
aF500
aF500
aF500
aF500
aF500
aF500
aF500
aF500
aF500
aF500
aF500
aF500
aF500
aF500
aF500
aF500
aF500
aF500
aF500
aF500
aF500
aF500
aF500
aF500
aF500
aF500
aF500
aF500
aF500
aF500
aF500
aF500
aF500
aF500
aF500
aF500
aF500
aF500
aF500
aF500
aF500
aF500
aF500
aF500
aF500
aF500
aF500
aF500
aF500
aF500
aF500
aF500
aF500
aF500
aF500
aF500
aF500
aF500
aF500
aF500
aF500
aF500
aF500
aF500
aF500
aF500
aF500
aF500
aF500
aF500
aF500
aF500
aF500
aF500
aF500
aF500
aF500
aF500
aF500
aF500
aF500
aF500
aF500
aF500
aF500
aF500
aF500
aF500
aF500
aF500
aF500
aF500
aF500
aF500
aF500
aF500
aF500
aF500
aF500
aF500
aF500
aF500
aF500
aF500
aF500
aF500
aF500
aF500
aF500
aF500
aF500
aF500
aF500
aF500
aF500
aF500
aF500
aF500
aF500
aF500
aF500
aF500
aF500
aF500
aF500
aF500
aF500
aF500
aF500
aF500
aF500
aF500
aF500
aF500
aF500
aF500
aF500
aF500
aF500
aF500
aF500
aF500
aF500
aF500
aF500
aF500
aF500
aF500
aF500
aF500
aF500
aF500
aF500
aF500
aF500
aF500
aF500
aF500
aF500
aF500
aF500
aF500
aF500
aF500
aF500
aF500
aF500
aF500
aF500
aF500
aF500
aF500
aF500
aF500
aF500
aF500
aF500
aF500
aF500
aF500
aF500
aF500
aF500
aF500
aF500
aF500
aF500
aF500
aF500
aF500
aF500
aF500
aF500
aF500
aF500
aF500
aF500
aF500
aF500
aF500
aF500
aF500
aF500
aF500
aF500
aF500
aF500
aF500
aF500
aF500
aF500
aF500
aF500
aF500
aF500
aF500
aF500
aF500
aF500
aF500
aF500
aF500
aF500
aF500
aF500
aF500
aF500
aF500
aF500
aF500
aF500
aF500
aF500
aF500
aF500
aF500
aF500
aF500
aF500
aF500
aF500
aF500
aF500
aF500
aF500
aF500
aF500
aF500
aF500
aF500
aF500
aF500
aF500
aF500
aF500
aF500
aF500
aF500
aF500
aF500
aF500
aF500
aF500
aF500
aF500
aF500
aF500
aF500
aF500
aF500
aF500
aF500
aF500
aF500
aF500
aF500
aF500
aF500
aF500
aF500
aF500
aF500
aF500
aF500
aF500
aF500
aF500
aF500
aF500
aF500
aF500
aF500
aF500
aF500
aF500
aF500
aF500
aF500
aF500
aF500
aF500
aF500
aF500
aF500
aF500
aF500
aF500
aF500
aF500
aF500
aF500
aF500
aF500
aF500
aF500
aF500
aF500
aF500
aF500
aF500
aF500
aF500
aF500
aF500
aF500
aF500
aF500
aF500
aF500
aF500
aF500
aF500
aF500
aF500
aF500
aF500
aF500
aF500
aF500
aF500
aF500
aF500
aF500
aF500
aF500
aF500
aF500
aF500
aF500
aF500
aF500
aF500
aF500
aF500
aF500
aF500
aF500
aF500
aF500
aF500
aF500
aF500
aF500
aF500
aF500
aF500
aF500
aF500
aF500
aF500
aF500
aF500
aF500
aF500
aF500
aF500
aF500
aF500
aF500
aF500
aF500
aF500
aF500
aF500
aF500
aF500
aF500
aF500
aF500
aF500
aF500
aF500
aF500
aF500
aF500
aF500
aF500
aF500
aF500
aF500
aF500
aF500
aF500
aF500
aF500
aF500
aF500
aF500
aF500
aF500
aF500
aF500
aF500
aF500
aF500
aF500
aF500
aF500
aF500
aF500
aF500
aF500
aF500
aF500
aF500
aF500
aF500
aF500
aF500
aF500
aF500
aF500
aF500
aF500
aF500
aF500
aF500
aF500
aF500
aF500
aF500
aF500
aF500
aF500
aF500
aF500
aF500
aF500
aF500
aF500
aF500
aF500
aF500
aF500
aF500
aF500
aF500
aF500
aF500
aF500
aF500
aF500
aF500
aF500
aF500
aF500
aF500
aF500
aF500
aF500
aF500
aF500
aF500
aF500
aF500
aF500
aF500
aF500
aF500
aF500
aF500
aF500
aF500
aF500
aF500
aF500
aF500
aF500
aF500
aF500
aF500
aF500
aF500
aF500
aF500
aF500
aF500
aF500
aF500
aF500
aF500
aF500
aF500
aF500
aF500
aF500
aF500
aF500
aF500
aF500
aF500
aF500
aF500
aF500
aF500
aF500
aF500
aF500
aF500
aF500
aF500
aF500
aF500
aF500
aF500
aF500
aF500
aF500
aF500
aF500
aF500
aF500
aF500
aF500
aF500
aF500
aF500
aF500
aF500
aF500
aF500
aF500
aF500
aF500
aF500
aF500
aF500
aF500
aF500
aF500
aF500
aF500
aF500
aF500
aF500
aF500
aF500
aF500
aF500
aF500
aF500
aF500
aF500
aF500
aF500
aF500
aF500
aF500
aF500
aF500
aF500
aF500
aF500
aF500
aF500
aF500
aF500
aF500
aF500
aF500
aF500
aF500
aF500
aF500
aF500
aF500
aF500
aF500
aF500
aF500
aF500
aF500
aF500
aF500
aF500
aF500
aF500
aF500
aF500
aF500
aF500
aF500
aF500
aF500
aF500
aF500
aF500
aF500
aF500
aF500
aF500
aF500
aF500
aF500
aF500
aF500
aF500
aF500
aF500
aF500
aF500
aF500
aF500
aF500
aF500
aF500
aF500
aF500
aF500
aF500
aF500
aF500
aF500
aF500
aF500
aF500
aF500
aF500
aF500
aF500
aF500
aF500
aF500
aF500
aF500
aF500
aF500
aF500
aF500
aF500
aF500
aF500
aF500
aF500
aF500
aF500
aF500
aF500
aF500
aF500
aF500
aF500
aF500
aF500
aF500
aF500
aF500
aF500
aF500
aF500
aF500
aF500
aF500
aF500
aF500
aF500
aF500
aF500
aF500
aF500
aF500
aF500
aF500
aF500
aF500
aF500
aF500
aF500
aF500
aF500
aF500
aF500
aF500
aF500
aF500
aF500
aF500
aF500
aF500
aF500
aF500
aF500
aF500
aF500
aF500
aF500
aF500
aF500
aF500
aF500
aF500
aF500
aF500
aF500
aF500
aF500
aF500
aF500
aF500
aF500
aF500
aF500
aF500
aF500
aF500
aF500
aF500
aF500
aF500
aF500
aF500
aF500
aF500
aF500
aF500
aF500
aF500
aF500
aF500
aF500
aF500
aF500
aF500
aF500
aF500
aF500
aF500
aF500
aF500
aF500
aF500
aF500
aF500
aF500
aF500
aF500
aF500
aF500
aF500
aF500
aF500
aF500
aF500
aF500
aF500
aF500
aF500
aF500
aF500
aF500
aF500
aF500
aF500
aF500
aF500
aF500
aF500
aF500
aF500
aF500
aF500
aF500
aF500
aF500
aF500
aF500
aF500
aF500
aF500
aF500
aF500
aF500
aF500
aF500
aF500
aF500
aF500
aF500
aF500
aF500
aF500
aF500
aF500
aF500
aF500
aF500
aF500
aF500
aF500
aF500
aF500
aF500
aF500
aF500
aF500
aF500
aF500
aF500
aF500
aF500
aF500
aF500
aF500
aF500
aF500
aF500
aF500
aF500
aF500
aF500
aF500
aF500
aF500
aF500
aF500
aF500
aF500
aF500
aF500
aF500
aF500
aF500
aF500
aF500
aF500
aF500
aF500
aF500
aF500
aF500
aF500
aF500
aF500
aF500
aF500
aF500
aF500
aF500
aF500
aF500
aF500
aF500
aF500
aF500
aF500
aF500
aF500
aF500
aF500
aF500
aF500
aF500
aF500
aF500
aF500
aF500
aF500
aF500
aF500
aF500
aF500
aF500
aF500
aF500
aF500
aF500
aF500
aF500
aF500
aF500
aF500
aF500
aF500
aF500
aF500
aF500
aF500
aF500
aF500
aF500
aF500
aF500
aF500
aF500
aF500
aF500
aF500
aF500
aF500
aF500
aF500
aF500
aF500
aF500
aF500
aF500
aF500
aF500
aF500
aF500
aF500
aF500
aF500
aF500
aF500
aF500
aF500
aF500
aF500
aF500
aF500
aF500
aF500
aF500
aF500
aF500
aF500
aF500
aF500
aF500
aF500
aF500
aF500
aF500
aF500
aF500
aF500
aF500
aF500
aF500
aF500
aF500
aF500
aF500
aF500
aF500
aF500
aF500
aF500
aF500
aF500
aF500
aF500
aF500
aF500
aF500
aF500
aF500
aF500
aF500
aF500
aF500
aF500
aF500
aF500
aF500
aF500
aF500
aF500
aF500
aF500
aF500
aF500
aF500
aF500
aF500
aF500
aF500
aF500
aF500
aF500
aF500
aF500
aF500
aF500
aF500
aF500
aF500
aF500
aF500
aF500
aF500
aF500
aF500
aF500
aF500
aF500
aF500
aF500
aF500
aF500
aF500
aF500
aF500
aF500
aF500
aF500
aF500
aF500
aF500
aF500
aF500
aF500
aF500
aF500
aF500
aF500
aF500
aF500
aF500
aF500
aF500
aF500
aF500
aF500
aF500
aF500
aF500
aF500
aF500
aF500
aF500
aF500
aF500
aF500
aF500
aF500
aF500
aF500
aF500
aF500
aF500
aF500
aF500
aF500
aF500
aF500
aF500
aF500
aF500
aF500
aF500
aF500
aF500
aF500
aF500
aF500
aF500
aF500
aF500
aF500
aF500
aF500
aF500
aF500
aF500
aF500
aF500
aF500
aF500
aF500
aF500
aF500
aF500
aF500
aF500
aF500
aF500
aF500
aF500
aF500
aF500
aF500
aF500
aF500
aF500
aF500
aF500
aF500
aF500
aF500
aF500
aF500
aF500
aF500
aF500
aF500
aF500
aF500
aF500
aF500
aF500
aF500
aF500
aF500
aF500
aF500
aF500
aF500
aF500
aF500
aF500
aF500
aF500
aF500
aF500
aF500
aF500
aF500
aF500
aF500
aF500
aF500
aF500
aF500
aF500
aF500
aF500
aF500
aF500
aF500
aF500
aF500
aF500
aF500
aF500
aF500
aF500
aF500
aF500
aF500
aF500
aF500
aF500
aF500
aF500
aF500
aF500
aF500
aF500
aF500
aF500
aF500
aF500
aF500
aF500
aF500
aF500
aF500
aF500
aF500
aF500
aF500
aF500
aF500
aF500
aF500
aF500
aF500
aF500
aF500
aF500
aF500
aF500
aF500
aF500
aF500
aF500
aF500
aF500
aF500
aF500
aF500
aF500
aF500
aF500
aF500
aF500
aF500
aF500
aF500
aF500
aF500
aF500
aF500
aF500
aF500
aF500
aF500
aF500
aF500
aF500
aF500
aF500
aF500
aF500
aF500
aF500
aF500
aF500
aF500
aF500
aF500
aF500
aF500
aF500
aF500
aF500
aF500
aF500
aF500
aF500
aF500
aF500
aF500
aF500
aF500
aF500
aF500
aF500
aF500
aF500
aF500
aF500
aF500
aF500
aF500
aF500
aF500
aF500
aF500
aF500
aF500
aF500
aF500
aF500
aF500
aF500
aF500
aF500
aF500
aF500
aF500
aF500
aF500
aF500
aF500
aF500
aF500
aF500
aF500
aF500
aF500
aF500
aF500
aF500
aF500
aF500
aF500
aF500
aF500
aF500
aF500
aF500
aF500
aF500
aF500
aF500
aF500
aF500
aF500
aF500
aF500
aF500
aF500
aF500
aF500
aF500
aF500
aF500
aF500
aF500
aF500
aF500
aF500
aF500
aF500
aF500
aF500
aF500
aF500
aF500
aF500
aF500
aF500
aF500
aF500
aF500
aF500
aF500
aF500
aF500
aF500
aF500
aF500
aF500
aF500
aF500
aF500
aF500
aF500
aF500
aF500
aF500
aF500
aF500
aF500
aF500
aF500
aF500
aF500
aF500
aF500
aF500
aF500
aF500
aF500
aF500
aF500
aF500
aF500
aF500
aF500
aF500
aF500
aF500
aF500
aF500
aF500
aF500
aF500
aF500
aF500
aF500
aF500
aF500
aF500
aF500
aF500
aF500
aF500
aF500
aF500
aF500
aF500
aF500
aF500
aF500
aF500
aF500
aF500
aF500
aF500
aF500
aF500
aF500
aF500
aF500
aF500
aF500
aF500
aF500
aF500
aF500
aF500
aF500
aF500
aF500
aF500
aF500
aF500
aF500
aF500
aF500
aF500
aF500
aF500
aF500
aF500
aF500
aF500
aF500
aF500
aF500
aF500
aF500
aF500
aF500
aF500
aF500
aF500
aF500
aF500
aF500
aF500
aF500
aF500
aF500
aF500
aF500
aF500
aF500
aF500
aF500
aF500
aF500
aF500
aF500
aF500
aF500
aF500
aF500
aF500
aF500
aF500
aF500
aF500
aF500
aF500
aF500
aF500
aF500
aF500
aF500
aF500
aF500
aF500
aF500
aF500
aF500
aF500
aF500
aF500
aF500
aF500
aF500
aF500
aF500
aF500
aF500
aF500
aF500
aF500
aF500
aF500
aF500
aF500
aF500
aF500
aF500
aF500
aF500
aF500
aF500
aF500
aF500
aF500
aF500
aF500
aF500
aF500
aF500
aF500
aF500
aF500
aF500
aF500
aF500
aF500
aF500
aF500
aF500
aF500
aF500
aF500
aF500
aF500
aF500
aF500
aF500
aF500
aF500
aF500
aF500
aF500
aF500
aF500
aF500
aF500
aF500
aF500
aF500
aF500
aF500
aF500
aF500
aF500
aF500
aF500
aF500
aF500
aF500
aF500
aF500
aF500
aF500
aF500
aF500
aF500
aF500
aF500
aF500
aF500
aF500
aF500
aF500
aF500
aF500
aF500
aF500
aF500
aF500
aF500
aF500
aF500
aF500
aF500
aF500
aF500
aF500
aF500
aF500
aF500
aF500
aF500
aF500
aF500
aF500
aF500
aF500
aF500
aF500
aF500
aF500
aF500
aF500
aF500
aF500
aF500
aF500
aF500
aF500
aF500
aF500
aF500
aF500
aF500
aF500
aF500
aF500
aF500
aF500
aF500
aF500
aF500
aF500
aF500
aF500
aF500
aF500
aF500
aF500
aF500
aF500
aF500
aF500
aF500
aF500
aF500
aF500
aF500
aF500
aF500
aF500
aF500
aF500
aF500
aF500
aF500
aF500
aF500
aF500
aF500
aF500
aF500
aF500
aF500
aF500
aF500
aF500
aF500
aF500
aF500
aF500
aF500
aF500
aF500
aF500
aF500
aF500
aF500
aF500
aF500
aF500
aF500
aF500
aF500
aF500
aF500
aF500
aF500
aF500
aF500
aF500
aF500
aF500
aF500
aF500
aF500
aF500
aF500
aF500
aF500
aF500
aF500
aF500
aF500
aF500
aF500
aF500
aF500
aF500
aF500
aF500
aF500
aF500
aF500
aF500
aF500
aF500
aF500
aF500
aF500
aF500
aF500
aF500
aF500
aF500
aF500
aF500
aF500
aF500
aF500
aF500
aF500
aF500
aF500
aF500
aF500
aF500
aF500
aF500
aF500
aF500
aF500
aF500
aF500
aF500
aF500
aF500
aF500
aF500
aF500
aF500
aF500
aF500
aF500
aF500
aF500
aF500
aF500
aF500
aF500
aF500
aF500
aF500
aF500
aF500
aF500
aF500
aF500
aF500
aF500
aF500
aF500
aF500
aF500
aF500
aF500
aF500
aF500
aF500
aF500
aF500
aF500
aF500
aF500
aF500
aF500
aF500
aF500
aF500
aF500
aF500
aF500
aF500
aF500
aF500
aF500
aF500
aF500
aF500
aF500
aF500
aF500
aF500
aF500
aF500
aF500
aF500
aF500
aF500
aF500
aF500
aF500
aF500
aF500
aF500
aF500
aF500
aF500
aF500
aF500
aF500
aF500
aF500
aF500
aF500
aF500
aF500
aF500
aF500
aF500
aF500
aF500
aF500
aF500
aF500
aF500
aF500
aF500
aF500
aF500
aF500
aF500
aF500
aF500
aF500
aF500
aF500
aF500
aF500
aF500
aF500
aF500
aF500
aF500
aF500
aF500
aF500
aF500
aF500
aF500
aF500
aF500
aF500
aF500
aF500
aF500
aF500
aF500
aF500
aF500
aF500
aF500
aF500
aF500
aF500
aF500
aF500
aF500
aF500
aF500
aF500
aF500
aF500
aF500
aF500
aF500
aF500
aF500
aF500
aF500
aF500
aF500
aF500
aF500
aF500
aF500
aF500
aF500
aF500
aF500
aF500
aF500
aF500
aF500
aF500
aF500
aF500
aF500
aF500
aF500
aF500
aF500
aF500
aF500
aF500
aF500
aF500
aF500
aF500
aF500
aF500
aF500
aF500
aF500
aF500
aF500
aF500
aF500
aF500
aF500
aF500
aF500
aF500
aF500
aF500
aF500
aF500
aF500
aF500
aF500
aF500
aF500
aF500
aF500
aF500
aF500
aF500
aF500
aF500
aF500
aF500
aF500
aF500
aF500
aF500
aF500
aF500
aF500
aF500
aF500
aF500
aF500
aF500
aF500
aF500
aF500
aF500
aF500
aF500
aF500
aF500
aF500
aF500
aF500
aF500
aF500
aF500
aF500
aF500
aF500
aF500
aF500
aF500
aF500
aF500
aF500
aF500
aF500
aF500
aF500
aF500
aF500
aF500
aF500
aF500
aF500
aF500
aF500
aF500
aF500
aF500
aF500
aF500
aF500
aF500
aF500
aF500
aF500
aF500
aF500
aF500
aF500
aF500
aF500
aF500
aF500
aF500
aF500
aF500
aF500
aF500
aF500
aF500
aF500
aF500
aF500
aF500
aF500
aF500
aF500
aF500
aF500
aF500
aF500
aF500
aF500
aF500
aF500
aF500
aF500
aF500
aF500
aF500
aF500
aF500
aF500
aF500
aF500
aF500
aF500
aF500
aF500
aF500
aF500
aF500
aF500
aF500
aF500
aF500
aF500
aF500
aF500
aF500
aF500
aF500
aF500
aF500
aF500
aF500
aF500
aF500
aF500
aF500
aF500
aF500
aF500
aF500
aF500
aF500
aF500
aF500
aF500
aF500
aF500
aF500
aF500
aF500
aF500
aF500
aF500
aF500
aF500
aF500
aF500
aF500
aF500
aF500
aF500
aF500
aF500
aF500
aF500
aF500
aF500
aF500
aF500
aF500
aF500
aF500
aF500
aF500
aF500
aF500
aF500
aF500
aF500
aF500
aF500
aF500
aF500
aF500
aF500
aF500
aF500
aF500
aF500
aF500
aF500
aF500
aF500
aF500
aF500
aF500
aF500
aF500
aF500
aF500
aF500
aF500
aF500
aF500
aF500
aF500
aF500
aF500
aF500
aF500
aF500
aF500
aF500
aF500
aF500
aF500
aF500
aF500
aF500
aF500
aF500
aF500
aF500
aF500
aF500
aF500
aF500
aF500
aF500
aF500
aF500
aF500
aF500
aF500
aF500
aF500
aF500
aF500
aF500
aF500
aF500
aF500
aF500
aF500
aF500
aF500
aF500
aF500
aF500
aF500
aF500
aF500
aF500
aF500
aF500
aF500
aF500
aF500
aF500
aF500
aF500
aF500
aF500
aF500
aF500
aF500
aF500
aF500
aF500
aF500
aF500
aF500
aF500
aF500
aF500
aF500
aF500
aF500
aF500
aF500
aF500
aF500
aF500
aF500
aF500
aF500
aF500
aF500
aF500
aF500
aF500
aF500
aF500
aF500
aF500
aF500
aF500
aF500
aF500
aF500
aF500
aF500
aF500
aF500
aF500
aF500
aF500
aF500
aF500
aF500
aF500
aF500
aF500
aF500
aF500
aF500
aF500
aF500
aF500
aF500
aF500
aF500
aF500
aF500
aF500
aF500
aF500
aF500
aF500
aF500
aF500
aF500
aF500
aF500
aF500
aF500
aF500
aF500
aF500
aF500
aF500
aF500
aF500
aF500
aF500
aF500
aF500
aF500
aF500
aF500
aF500
aF500
aF500
aF500
aF500
aF500
aF500
aF500
aF500
aF500
aF500
aF500
aF500
aF500
aF500
aF500
aF500
aF500
aF500
aF500
aF500
aF500
aF500
aF500
aF500
aF500
aF500
aF500
aF500
aF500
aF500
aF500
aF500
aF500
aF500
aF500
aF500
aF500
aF500
aF500
aF500
aF500
aF500
aF500
aF500
aF500
aF500
aF500
aF500
aF500
aF500
aF500
aF500
aF500
aF500
aF500
aF500
aF500
aF500
aF500
aF500
aF500
aF500
aF500
aF500
aF500
aF500
aF500
aF500
aF500
aF500
aF500
aF500
aF500
aF500
aF500
aF500
aF500
aF500
aF500
aF500
aF500
aF500
aF500
aF500
aF500
aF500
aF500
aF500
aF500
aF500
aF500
aF500
aF500
aF500
aF500
aF500
aF500
aF500
aF500
aF500
aF500
aF500
aF500
aF500
aF500
aF500
aF500
aF500
aF500
aF500
aF500
aF500
aF500
aF500
aF500
aF500
aF500
aF500
aF500
aF500
aF500
aF500
aF500
aF500
aF500
aF500
aF500
aF500
aF500
aF500
aF500
aF500
aF500
aF500
aF500
aF500
aF500
aF500
aF500
aF500
aF500
aF500
aF500
aF500
aF500
aF500
aF500
aF500
aF500
aF500
aF500
aF500
aF500
aF500
aF500
aF500
aF500
aF500
aF500
aF500
aF500
aF500
aF500
aF500
aF500
aF500
aF500
aF500
aF500
aF500
aF500
aF500
aF500
aF500
aF500
aF500
aF500
aF500
aF500
aF500
aF500
aF500
aF500
aF500
aF500
aF500
aF500
aF500
aF500
aF500
aF500
aF500
aF500
aF500
aF500
aF500
aF500
aF500
aF500
aF500
aF500
aF500
aF500
aF500
aF500
aF500
aF500
aF500
aF500
aF500
aF500
aF500
aF500
aF500
aF500
aF500
aF500
aF500
aF500
aF500
aF500
aF500
aF500
aF500
aF500
aF500
aF500
aF500
aF500
aF500
aF500
aF500
aF500
aF500
aF500
aF500
aF500
aF500
aF500
aF500
aF500
aF500
aF500
aF500
aF500
aF500
aF500
aF500
aF500
aF500
aF500
aF500
aF500
aF500
aF500
aF500
aF500
aF500
aF500
aF500
aF500
aF500
aF500
aF500
aF500
aF500
aF500
aF500
aF500
aF500
aF500
aF500
aF500
aF500
aF500
aF500
aF500
aF500
aF500
aF500
aF500
aF500
aF500
aF500
aF500
aF500
aF500
aF500
aF500
aF500
aF500
aF500
aF500
aF500
aF500
aF500
aF500
aF500
aF500
aF500
aF500
aF500
aF500
aF500
aF500
aF500
aF500
aF500
aF500
aF500
aF500
aF500
aF500
aF500
aF500
aF500
aF500
aF500
aF500
aF500
aF500
aF500
aF500
aF500
aF500
aF500
aF500
aF500
aF500
aF500
aF500
aF500
aF500
aF500
aF500
aF500
aF500
aF500
aF500
aF500
aF500
aF500
aF500
aF500
aF500
aF500
aF500
aF500
aF500
aF500
aF500
aF500
aF500
aF500
aF500
aF500
aF500
aF500
aF500
aF500
aF500
aF500
aF500
aF500
aF500
aF500
aF500
aF500
aF500
aF500
aF500
aF500
aF500
aF500
aF500
aF500
aF500
aF500
aF500
aF500
aF500
aF500
aF500
aF500
aF500
aF500
aF500
aF500
aF500
aF500
aF500
aF500
aF500
aF500
aF500
aF500
aF500
aF500
aF500
aF500
aF500
aF500
aF500
aF500
aF500
aF500
aF500
aF500
aF500
aF500
aF500
aF500
aF500
aF500
aF500
aF500
aF500
aF500
aF500
aF500
aF500
aF500
aF500
aF500
aF500
aF500
aF500
aF500
aF500
aF500
aF500
aF500
aF500
aF500
aF500
aF500
aF500
aF500
aF500
aF500
aF500
aF500
aF500
aF500
aF500
aF500
aF500
aF500
aF500
aF500
aF500
aF500
aF500
aF500
aF500
aF500
aF500
aF500
aF500
aF500
aF500
aF500
aF500
aF500
aF500
aF500
aF500
aF500
aF500
aF500
aF500
aF500
aF500
aF500
aF500
aF500
aF500
aF500
aF500
aF500
aF500
aF500
aF500
aF500
aF500
aF500
aF500
aF500
aF500
aF500
aF500
aF500
aF500
aF500
aF500
aF500
aF500
aF500
aF500
aF500
aF500
aF500
aF500
aF500
aF500
aF500
aF500
aF500
aF500
aF500
aF500
aF500
aF500
aF500
aF500
aF500
aF500
aF500
aF500
aF500
aF500
aF500
aF500
aF500
aF500
aF500
aF500
aF500
aF500
aF500
aF500
aF500
aF500
aF500
aF500
aF500
aF500
aF500
aF500
aF500
aF500
aF500
aF500
aF500
aF500
aF500
aF500
aF500
aF500
aF500
aF500
aF500
aF500
aF500
aF500
aF500
aF500
aF500
aF500
aF500
aF500
aF500
aF500
aF500
aF500
aF500
aF500
aF500
aF500
aF500
aF500
aF500
aF500
aF500
aF500
aF500
aF500
aF500
aF500
aF500
aF500
aF500
aF500
aF500
aF500
aF500
aF500
aF500
aF500
aF500
aF500
aF500
aF500
aF500
aF500
aF500
aF500
aF500
aF500
aF500
aF500
aF500
aF500
aF500
aF500
aF500
aF500
aF500
aF500
aF500
aF500
aF500
aF500
aF500
aF500
aF500
aF500
aF500
aF500
aF500
aF500
aF500
aF500
aF500
aF500
aF500
aF500
aF500
aF500
aF500
aF500
aF500
aF500
aF500
aF500
aF500
aF500
aF500
aF500
aF500
aF500
aF500
aF500
aF500
aF500
aF500
aF500
aF500
aF500
aF500
aF500
aF500
aF500
aF500
aF500
aF500
aF500
aF500
aF500
aF500
aF500
aF500
aF500
aF500
aF500
aF500
aF500
aF500
aF500
aF500
aF500
aF500
aF500
aF500
aF500
aF500
aF500
aF500
aF500
aF500
aF500
aF500
aF500
aF500
aF500
aF500
aF500
aF500
aF500
aF500
aF500
aF500
aF500
aF500
aF500
aF500
aF500
aF500
aF500
aF500
aF500
aF500
aF500
aF500
aF500
aF500
aF500
aF500
aF500
aF500
aF500
aF500
aF500
aF500
aF500
aF500
aF500
aF500
aF500
aF500
aF500
aF500
aF500
aF500
aF500
aF500
aF500
aF500
aF500
aF500
aF500
aF500
aF500
aF500
aF500
aF500
aF500
aF500
aF500
aF500
aF500
aF500
aF500
aF500
aF500
aF500
aF500
aF500
aF500
aF500
aF500
aF500
aF500
aF500
aF500
aF500
aF500
aF500
aF500
aF500
aF500
aF500
aF500
aF500
aF500
aF500
aF500
aF500
aF500
aF500
aF500
aF500
aF500
aF500
aF500
aF500
aF500
aF500
aF500
aF500
aF500
aF500
aF500
aF500
aF500
aF500
aF500
aF500
aF500
aF500
aF500
aF500
aF500
aF500
aF500
aF500
aF500
aF500
aF500
aF500
aF500
aF500
aF500
aF500
aF500
aF500
aF500
aF500
aF500
aF500
aF500
aF500
aF500
aF500
aF500
aF500
aF500
aF500
aF500
aF500
aF500
aF500
aF500
aF500
aF500
aF500
aF500
aF500
aF500
aF500
aF500
aF500
aF500
aF500
aF500
aF500
aF500
aF500
aF500
aF500
aF500
aF500
aF500
aF500
aF500
aF500
aF500
aF500
aF500
aF500
aF500
aF500
aF500
aF500
aF500
aF500
aF500
aF500
aF500
aF500
aF500
aF500
aF500
aF500
aF500
aF500
aF500
aF500
aF500
aF500
aF500
aF500
aF500
aF500
aF500
aF500
aF500
aF500
aF500
aF500
aF500
aF500
aF500
aF500
aF500
aF500
aF500
aF500
aF500
aF500
aF500
aF500
aF500
aF500
aF500
aF500
aF500
aF500
aF500
aF500
aF500
aF500
aF500
aF500
aF500
aF500
aF500
aF500
aF500
aF500
aF500
aF500
aF500
aF500
aF500
aF500
aF500
aF500
aF500
aF500
aF500
aF500
aF500
aF500
aF500
aF500
aF500
aF500
aF500
aF500
aF500
aF500
aF500
aF500
aF500
aF500
aF500
aF500
aF500
aF500
aF500
aF500
aF500
aF500
aF500
aF500
aF500
aF500
aF500
aF500
aF500
aF500
aF500
aF500
aF500
aF500
aF500
aF500
aF500
aF500
aF500
aF500
aF500
aF500
aF500
aF500
aF500
aF500
aF500
aF500
aF500
aF500
aF500
aF500
aF500
aF500
aF500
aF500
aF500
aF500
aF500
aF500
aF500
aF500
aF500
aF500
aF500
aF500
aF500
aF500
aF500
aF500
aF500
aF500
aF500
aF500
aF500
aF500
aF500
aF500
aF500
aF500
aF500
aF500
aF500
aF500
aF500
aF500
aF500
aF500
aF500
aF500
aF500
aF500
aF500
aF500
aF500
aF500
aF500
aF500
aF500
aF500
aF500
aF500
aF500
aF500
aF500
aF500
aF500
aF500
aF500
aF500
aF500
aF500
aF500
aF500
aF500
aF500
aF500
aF500
aF500
aF500
aF500
aF500
aF500
aF500
aF500
aF500
aF500
aF500
aF500
aF500
aF500
aF500
aF500
aF500
aF500
aF500
aF500
aF500
aF500
aF500
aF500
aF500
aF500
aF500
aF500
aF500
aF500
aF500
aF500
aF500
aF500
aF500
aF500
aF500
aF500
aF500
aF500
aF500
aF500
aF500
aF500
aF500
aF500
aF500
aF500
aF500
aF500
aF500
aF500
aF500
aF500
aF500
aF500
aF500
aF500
aF500
aF500
aF500
aF500
aF500
aF500
aF500
aF500
aF500
aF500
aF500
aF500
aF500
aF500
aF500
aF500
aF500
aF500
aF500
aF500
aF500
aF500
aF500
aF500
aF500
aF500
aF500
aF500
aF500
aF500
aF500
aF500
aF500
aF500
aF500
aF500
aF500
aF500
aF500
aF500
aF500
aF500
aF500
aF500
aF500
aF500
aF500
aF500
aF500
aF500
aF500
aF500
aF500
aF500
aF500
aF500
aF500
aF500
aF500
aF500
aF500
aF500
aF500
aF500
aF500
aF500
aF500
aF500
aF500
aF500
aF500
aF500
aF500
aF500
aF500
aF500
aF500
aF500
aF500
aF500
aF500
aF500
aF500
aF500
aF500
aF500
aF500
aF500
aF500
aF500
aF500
aF500
aF500
aF500
aF500
aF500
aF500
aF500
aF500
aF500
aF500
aF500
aF500
aF500
aF500
aF500
aF500
aF500
aF500
aF500
aF500
aF500
aF500
aF500
aF500
aF500
aF500
aF500
aF500
aF500
aF500
aF500
aF500
aF500
aF500
aF500
aF500
aF500
aF500
aF500
aF500
aF500
aF500
aF500
aF500
aF500
aF500
aF500
aF500
aF500
aF500
aF500
aF500
aF500
aF500
aF500
aF500
aF500
aF500
aF500
aF500
aF500
aF500
aF500
aF500
aF500
aF500
aF500
aF500
aF500
aF500
aF500
aF500
aF500
aF500
aF500
aF500
aF500
aF500
aF500
aF500
aF500
aF500
aF500
aF500
aF500
aF500
aF500
aF500
aF500
aF500
aF500
aF500
aF500
aF500
aF500
aF500
aF500
aF500
aF500
aF500
aF500
aF500
aF500
aF500
aF500
aF500
aF500
aF500
aF500
aF500
aF500
aF500
aF500
aF500
aF500
aF500
aF500
aF500
aF500
aF500
aF500
aF500
aF500
aF500
aF500
aF500
aF500
aF500
aF500
aF500
aF500
aF500
aF500
aF500
aF500
aF500
aF500
aF500
aF500
aF500
aF500
aF500
aF500
aF500
aF500
aF500
aF500
aF500
aF500
aF500
aF500
aF500
aF500
aF500
aF500
aF500
aF500
aF500
aF500
aF500
aF500
aF500
aF500
aF500
aF500
aF500
aF500
aF500
aF500
aF500
aF500
aF500
aF500
aF500
aF500
aF500
aF500
aF500
aF500
aF500
aF500
aF500
aF500
aF500
aF500
aF500
aF500
aF500
aF500
aF500
aF500
aF500
aF500
aF500
aF500
aF500
aF500
aF500
aF500
aF500
aF500
aF500
aF500
aF500
aF500
aF500
aF500
aF500
aF500
aF500
aF500
aF500
aF500
aF500
aF500
aF500
aF500
aF500
aF500
aF500
aF500
aF500
aF500
aF500
aF500
aF500
aF500
aF500
aF500
aF500
aF500
aF500
aF500
aF500
aF500
aF500
aF500
aF500
aF500
aF500
aF500
aF500
aF500
aF500
aF500
aF500
aF500
aF500
aF500
aF500
aF500
aF500
aF500
aF500
aF500
aF500
aF500
aF500
aF500
aF500
aF500
aF500
aF500
aF500
aF500
aF500
aF500
aF500
aF500
aF500
aF500
aF500
aF500
aF500
aF500
aF500
aF500
aF500
aF500
aF500
aF500
aF500
aF500
aF500
aF500
aF500
aF500
aF500
aF500
aF500
aF500
aF500
aF500
aF500
aF500
aF500
aF500
aF500
aF500
aF500
aF500
aF500
aF500
aF500
aF500
aF500
aF500
aF500
aF500
aF500
aF500
aF500
aF500
aF500
aF500
aF500
aF500
aF500
aF500
aF500
aF500
aF500
aF500
aF500
aF500
aF500
aF500
aF500
aF500
aF500
aF500
aF500
aF500
aF500
aF500
aF500
aF500
aF500
aF500
aF500
aF500
aF500
aF500
aF500
aF500
aF500
aF500
aF500
aF500
aF500
aF500
aF500
aF500
aF500
aF500
aF500
aF500
aF500
aF500
aF500
aF500
aF500
aF500
aF500
aF500
aF500
aF500
aF500
aF500
aF500
aF500
aF500
aF500
aF500
aF500
aF500
aF500
aF500
aF500
aF500
aF500
aF500
aF500
aF500
aF500
aF500
aF500
aF500
aF500
aF500
aF500
aF500
aF500
aF500
aF500
aF500
aF500
aF500
aF500
aF500
aF500
aF500
aF500
aF500
aF500
aF500
aF500
aF500
aF500
aF500
aF500
aF500
aF500
aF500
aF500
aF500
aF500
aF500
aF500
aF500
aF500
aF500
aF500
aF500
aF500
aF500
aF500
aF500
aF500
aF500
aF500
aF500
aF500
aF500
aF500
aF500
aF500
aF500
aF500
aF500
aF500
aF500
aF500
aF500
aF500
aF500
aF500
aF500
aF500
aF500
aF500
aF500
aF500
aF500
aF500
aF500
aF500
aF500
aF500
aF500
aF500
aF500
aF500
aF500
aF500
aF500
aF500
aF500
aF500
aF500
aF500
aF500
aF500
aF500
aF500
aF500
aF500
aF500
aF500
aF500
aF500
aF500
aF500
aF500
aF500
aF500
aF500
aF500
aF500
aF500
aF500
aF500
aF500
aF500
aF500
aF500
aF500
aF500
aF500
aF500
aF500
aF500
aF500
aF500
aF500
aF500
aF500
aF500
aF500
aF500
aF500
aF500
aF500
aF500
aF500
aF500
aF500
aF500
aF500
aF500
aF500
aF500
aF500
aF500
aF500
aF500
aF500
aF500
aF500
aF500
aF500
aF500
aF500
aF500
aF500
aF500
aF500
aF500
aF500
aF500
aF500
aF500
aF500
aF500
aF500
aF500
aF500
aF500
aF500
aF500
aF500
aF500
aF500
aF500
aF500
aF500
aF500
aF500
aF500
aF500
aF500
aF500
aF500
aF500
aF500
aF500
aF500
aF500
aF500
aF500
aF500
aF500
aF500
aF500
aF500
aF500
aF500
aF500
aF500
aF500
aF500
aF500
aF500
aF500
aF500
aF500
aF500
aF500
aF500
aF500
aF500
aF500
aF500
aF500
aF500
aF500
aF500
aF500
aF500
aF500
aF500
aF500
aF500
aF500
aF500
aF500
aF500
aF500
aF500
aF500
aF500
aF500
aF500
aF500
aF500
aF500
aF500
aF500
aF500
aF500
aF500
aF500
aF500
aF500
aF500
aF500
aF500
aF500
aF500
aF500
aF500
aF500
aF500
aF500
aF500
aF500
aF500
aF500
aF500
aF500
aF500
aF500
aF500
aF500
aF500
aF500
aF500
aF500
aF500
aF500
aF500
aF500
aF500
aF500
aF500
aF500
aF500
aF500
aF500
aF500
aF500
aF500
aF500
aF500
aF500
aF500
aF500
aF500
aF500
aF500
aF500
aF500
aF500
aF500
aF500
aF500
aF500
aF500
aF500
aF500
aF500
aF500
aF500
aF500
aF500
aF500
aF500
aF500
aF500
aF500
aF500
aF500
aF500
aF500
aF500
aF500
aF500
aF500
aF500
aF500
aF500
aF500
aF500
aF500
aF500
aF500
aF500
aF500
aF500
aF500
aF500
aF500
aF500
aF500
aF500
aF500
aF500
aF500
aF500
aF500
aF500
aF500
aF500
aF500
aF500
aF500
aF500
aF500
aF500
aF500
aF500
aF500
aF500
aF500
aF500
aF500
aF500
aF500
aF500
aF500
aF500
aF500
aF500
aF500
aF500
aF500
aF500
aF500
aF500
aF500
aF500
aF500
aF500
aF500
aF500
aF500
aF500
aF500
aF500
aF500
aF500
aF500
aF500
aF500
aF500
aF500
aF500
aF500
aF500
aF500
aF500
aF500
aF500
aF500
aF500
aF500
aF500
aF500
aF500
aF500
aF500
aF500
aF500
aF500
aF500
aF500
aF500
aF500
aF500
aF500
aF500
aF500
aF500
aF500
aF500
aF500
aF500
aF500
aF500
aF500
aF500
aF500
aF500
aF500
aF500
aF500
aF500
aF500
aF500
aF500
aF500
aF500
aF500
aF500
aF500
aF500
aF500
aF500
aF500
aF500
aF500
aF500
aF500
aF500
aF500
aF500
aF500
aF500
aF500
aF500
aF500
aF500
aF500
aF500
aF500
aF500
aF500
aF500
aF500
aF500
aF500
aF500
aF500
aF500
aF500
aF500
aF500
aF500
aF500
aF500
aF500
aF500
aF500
aF500
aF500
aF500
aF500
aF500
aF500
aF500
aF500
aF500
aF500
aF500
aF500
aF500
aF500
aF500
aF500
aF500
aF500
aF500
aF500
aF500
aF500
aF500
aF500
aF500
aF500
aF500
aF500
aF500
aF500
aF500
aF500
aF500
aF500
aF500
aF500
aF500
aF500
aF500
aF500
aF500
aF500
aF500
aF500
aF500
aF500
aF500
aF500
aF500
aF500
aF500
aF500
aF500
aF500
aF500
aF500
aF500
aF500
aF500
aF500
aF500
aF500
aF500
aF500
aF500
aF500
aF500
aF500
aF500
aF500
aF500
aF500
aF500
aF500
aF500
aF500
aF500
aF500
aF500
aF500
aF500
aF500
aF500
aF500
aF500
aF500
aF500
aF500
aF500
aF500
aF500
aF500
aF500
aF500
aF500
aF500
aF500
aF500
aF500
aF500
aF500
aF500
aF500
aF500
aF500
aF500
aF500
aF500
aF500
aF500
aF500
aF500
aF500
aF500
aF500
aF500
aF500
aF500
aF500
aF500
aF500
aF500
aF500
aF500
aF500
aF500
aF500
aF500
aF500
aF500
aF500
aF500
aF500
aF500
aF500
aF500
aF500
aF500
aF500
aF500
aF500
aF500
aF500
aF500
aF500
aF500
aF500
aF500
aF500
aF500
aF500
aF500
aF500
aF500
aF500
aF500
aF500
aF500
aF500
aF500
aF500
aF500
aF500
aF500
aF500
aF500
aF500
aF500
aF500
aF500
aF500
aF500
aF500
aF500
aF500
aF500
aF500
aF500
aF500
aF500
aF500
aF500
aF500
aF500
aF500
aF500
aF500
aF500
aF500
aF500
aF500
aF500
aF500
aF500
aF500
aF500
aF500
aF500
aF500
aF500
aF500
aF500
aF500
aF500
aF500
aF500
aF500
aF500
aF500
aF500
aF500
aF500
aF500
aF500
aF500
aF500
aF500
aF500
aF500
aF500
aF500
aF500
aF500
aF500
aF500
aF500
aF500
aF500
aF500
aF500
aF500
aF500
aF500
aF500
aF500
aF500
aF500
aF500
aF500
aF500
aF500
aF500
aF500
aF500
aF500
aF500
aF500
aF500
aF500
aF500
aF500
aF500
aF500
aF500
aF500
aF500
aF500
aF500
aF500
aF500
aF500
aF500
aF500
aF500
aF500
aF500
aF500
aF500
aF500
aF500
aF500
aF500
aF500
aF500
aF500
aF500
aF500
aF500
aF500
aF500
aF500
aF500
aF500
aF500
aF500
aF500
aF500
aF500
aF500
aF500
aF500
aF500
aF500
aF500
aF500
aF500
aF500
aF500
aF500
aF500
aF500
aF500
aF500
aF500
aF500
aF500
aF500
aF500
aF500
aF500
aF500
aF500
aF500
aF500
aF500
aF500
aF500
aF500
aF500
aF500
aF500
aF500
aF500
aF500
aF500
aF500
aF500
aF500
aF500
aF500
aF500
aF500
aF500
aF500
aF500
aF500
aF500
aF500
aF500
aF500
aF500
aF500
aF500
aF500
aF500
aF500
aF500
aF500
aF500
aF500
aF500
aF500
aF500
aF500
aF500
aF500
aF500
aF500
aF500
aF500
aF500
aF500
aF500
aF500
aF500
aF500
aF500
aF500
aF500
aF500
aF500
aF500
aF500
aF500
aF500
aF500
aF500
aF500
aF500
aF500
aF500
aF500
aF500
aF500
aF500
aF500
aF500
aF500
aF500
aF500
aF500
aF500
aF500
aF500
aF500
aF500
aF500
aF500
aF500
aF500
aF500
aF500
aF500
aF500
aF500
aF500
aF500
aF500
aF500
aF500
aF500
aF500
aF500
aF500
aF500
aF500
aF500
aF500
aF500
aF500
aF500
aF500
aF500
aF500
aF500
aF500
aF500
aF500
aF500
aF500
aF500
aF500
aF500
aF500
aF500
aF500
aF500
aF500
aF500
aF500
aF500
aF500
aF500
aF500
aF500
aF500
aF500
aF500
aF500
aF500
aF500
aF500
aF500
aF500
aF500
aF500
aF500
aF500
aF500
aF500
aF500
aF500
aF500
aF500
aF500
aF500
aF500
aF500
aF500
aF500
aF500
aF500
aF500
aF500
aF500
aF500
aF500
aF500
aF500
aF500
aF500
aF500
aF500
aF500
aF500
aF500
aF500
aF500
aF500
aF500
aF500
aF500
aF500
aF500
aF500
aF500
aF500
aF500
aF500
aF500
aF500
aF500
aF500
aF500
aF500
aF500
aF500
aF500
aF500
aF500
aF500
aF500
aF500
aF500
aF500
aF500
aF500
aF500
aF500
aF500
aF500
aF500
aF500
aF500
aF500
aF500
aF500
aF500
aF500
aF500
aF500
aF500
aF500
aF500
aF500
aF500
aF500
aF500
aF500
aF500
aF500
aF500
aF500
aF500
aF500
aF500
aF500
aF500
aF500
aF500
aF500
aF500
aF500
aF500
aF500
aF500
aF500
aF500
aF500
aF500
aF500
aF500
aF500
aF500
aF500
aF500
aF500
aF500
aF500
aF500
aF500
aF500
aF500
aF500
aF500
aF500
aF500
aF500
aF500
aF500
aF500
aF500
aF500
aF500
aF500
aF500
aF500
aF500
aF500
aF500
aF500
aF500
aF500
aF500
aF500
aF500
aF500
aF500
aF500
aF500
aF500
aF500
aF500
aF500
aF500
aF500
aF500
aF500
aF500
aF500
aF500
aF500
aF500
aF500
aF500
aF500
aF500
aF500
aF500
aF500
aF500
aF500
aF500
aF500
aF500
aF500
aF500
aF500
aF500
aF500
aF500
aF500
aF500
aF500
aF500
aF500
aF500
aF500
aF500
aF500
aF500
aF500
aF500
aF500
aF500
aF500
aF500
aF500
aF500
aF500
aF500
aF500
aF500
aF500
aF500
aF500
aF500
aF500
aF500
aF500
aF500
aF500
aF500
aF500
aF500
aF500
aF500
aF500
aF500
aF500
aF500
aF500
aF500
aF500
aF500
aF500
aF500
aF500
aF500
aF500
aF500
aF500
aF500
aF500
aF500
aF500
aF500
aF500
aF500
aF500
aF500
aF500
aF500
aF500
aF500
aF500
aF500
aF500
aF500
aF500
aF500
aF500
aF500
aF500
aF500
aF500
aF500
aF500
aF500
aF500
aF500
aF500
aF500
aF500
aF500
aF500
aF500
aF500
aF500
aF500
aF500
aF500
aF500
aF500
aF500
aF500
aF500
aF500
aF500
aF500
aF500
aF500
aF500
aF500
aF500
aF500
aF500
aF500
aF500
aF500
aF500
aF500
aF500
aF500
aF500
aF500
aF500
aF500
aF500
aF500
aF500
aF500
aF500
aF500
aF500
aF500
aF500
aF500
aF500
aF500
aF500
aF500
aF500
aF500
aF500
aF500
aF500
aF500
aF500
aF500
aF500
aF500
aF500
aF500
aF500
aF500
aF500
aF500
aF500
aF500
aF500
aF500
aF500
aF500
aF500
aF500
aF500
aF500
aF500
aF500
aF500
aF500
aF500
aF500
aF500
aF500
aF500
aF500
aF500
aF500
aF500
aF500
aF500
aF500
aF500
aF500
aF500
aF500
aF500
aF500
aF500
aF500
aF500
aF500
aF500
aF500
aF500
aF500
aF500
aF500
aF500
aF500
aF500
aF500
aF500
aF500
aF500
aF500
aF500
aF500
aF500
aF500
aF500
aF500
aF500
aF500
aF500
aF500
aF500
aF500
aF500
aF500
aF500
aF500
aF500
aF500
aF500
aF500
aF500
aF500
aF500
aF500
aF500
aF500
aF500
aF500
aF500
aF500
aF500
aF500
aF500
aF500
aF500
aF500
aF500
aF500
aF500
aF500
aF500
aF500
aF500
aF500
aF500
aF500
aF500
aF500
aF500
aF500
aF500
aF500
aF500
aF500
aF500
aF500
aF500
aF500
aF500
aF500
aF500
aF500
aF500
aF500
aF500
aF500
aF500
aF500
aF500
aF500
aF500
aF500
aF500
aF500
aF500
aF500
aF500
aF500
aF500
aF500
aF500
aF500
aF500
aF500
aF500
aF500
aF500
aF500
aF500
aF500
aF500
aF500
aF500
aF500
aF500
aF500
aF500
aF500
aF500
aF500
aF500
aF500
aF500
aF500
aF500
aF500
aF500
aF500
aF500
aF500
aF500
aF500
aF500
aF500
aF500
aF500
aF500
aF500
aF500
aF500
aF500
aF500
aF500
aF500
aF500
aF500
aF500
aF500
aF500
aF500
aF500
aF500
aF500
aF500
aF500
aF500
aF500
aF500
aF500
aF500
aF500
aF500
aF500
aF500
aF500
aF500
aF500
aF500
aF500
aF500
aF500
aF500
aF500
aF500
aF500
aF500
aF500
aF500
aF500
aF500
aF500
aF500
aF500
aF500
aF500
aF500
aF500
aF500
aF500
aF500
aF500
aF500
aF500
aF500
aF500
aF500
aF500
aF500
aF500
aF500
aF500
aF500
aF500
aF500
aF500
aF500
aF500
aF500
aF500
aF500
aF500
aF500
aF500
aF500
aF500
aF500
aF500
aF500
aF500
aF500
aF500
aF500
aF500
aF500
aF500
aF500
aF500
aF500
aF500
aF500
aF500
aF500
aF500
aF500
aF500
aF500
aF500
aF500
aF500
aF500
aF500
aF500
aF500
aF500
aF500
aF500
aF500
aF500
aF500
aF500
aF500
aF500
aF500
aF500
aF500
aF500
aF500
aF500
aF500
aI507
aI801
aF500
aF500
aF500
aI234
aI234
aF500
aF500
aI432
aI432
aF500
aF500
aF500
aF500
aF500
aF500
aF500
aF500
aI834
aF500
aF500
aF500
aF500
aF500
aF500
aF500
aF500
aF500
aF500
aF500
aF500
aF500
aF500
aF500
aF500
aF500
aF500
aF500
aF500
aF500
aF500
aF500
aF500
aF500
aF500
aF500
aF500
aF500
aF500
aF500
aF500
aF500
aF500
aF500
aF500
aF500
aF500
aF500
aF500
aF500
aF500
aF500
aF500
aF500
aF500
aF500
aF500
aF500
aF500
aF500
aF500
aF500
aF500
aF500
aF500
aF500
aF500
aF500
aF500
aF500
aF500
aF500
aF500
aF500
aF500
aF500
aF500
aF500
aF500
aF500
aF500
aF500
aF500
aF500
aF500
aF500
aF500
aF500
aF500
aF500
aF500
aF500
aF500
aF500
aF500
aF500
aF500
aF500
aF500
aF500
aF500
aF500
aF500
aF500
aF500
aF500
aF500
aF500
aF500
aF500
aF500
aF500
aF500
aF500
aF500
aF500
aF500
aF500
aF500
aF500
aF500
aF500
aF500
aF500
aF500
aF500
aF500
aF500
aF500
aF500
aF500
aF500
aF500
aF500
aF500
aF500
aF500
aF500
aF500
aF500
aF500
aF500
aF500
aF500
aF500
aF500
aF500
aF500
aF500
aF500
aF500
aF500
aF500
aF500
aF500
aF500
aF500
aF500
aF500
aF500
aF500
aF500
aF500
aF500
aF500
aF500
aF500
aF500
aF500
aF500
aF500
aF500
aF500
aF500
aF500
aF500
aF500
aF500
aF500
aF500
aF500
aF500
aF500
aF500
aF500
aF500
aF500
aF500
aF500
aF500
aF500
aF500
aF500
aF500
aF500
aF500
aF500
aF500
aF500
aF500
aF500
aF500
aF500
aF500
aF500
aF500
aF500
aF500
aF500
aF500
aF500
aF500
aF500
aF500
aF500
aF500
aF500
aF500
aF500
aF500
aF500
aF500
aF500
aF500
aF500
aF500
aF500
aF500
aF500
aF500
aF500
aF500
aF500
aF500
aF500
aF500
aF500
aF500
aF500
aF500
aF500
aF500
aF500
aF500
aF500
aF500
aF500
aF500
aF500
aF500
aF500
aF500
aF500
aF500
aF500
aF500
aF500
aF500
aF500
aF500
aF500
aF500
aF500
aF500
aF500
aF500
aF500
aF500
aF500
aF500
aF500
aF500
aF500
aF500
aF500
aF500
aF500
aF500
aF500
aF500
aF500
aF500
aF500
aF500
aF500
aF500
aF500
aF500
aF500
aF500
aF500
aF500
aF500
aF500
aF500
aF500
aF500
aF500
aF500
aF500
aF500
aF500
aF500
aF500
aF500
aF500
aF500
aF500
aF500
aF500
aF500
aF500
aF500
aF500
aF500
aF500
aF500
aF500
aF500
aF500
aF500
aF500
aF500
aF500
aF500
aF500
aF500
aF500
aF500
aF500
aF500
aF500
aF500
aF500
aF500
aF500
aF500
aF500
aF500
aF500
aF500
aF500
aF500
aF500
aF500
aF500
aF500
aF500
aF500
aF500
aF500
aF500
aF500
aF500
aF500
aF500
aF500
aF500
aF500
aF500
aF500
aF500
aF500
aF500
aF500
aF500
aF500
aF500
aF500
aF500
aF500
aF500
aF500
aF500
aF500
aF500
aF500
aF500
aF500
aF500
aF500
aF500
aF500
aF500
aF500
aF500
aF500
aF500
aF500
aF500
aF500
aF500
aF500
aF500
aF500
aF500
aF500
aF500
aF500
aF500
aF500
aF500
aF500
aF500
aF500
aF500
aF500
aF500
aF500
aF500
aF500
aF500
aF500
aF500
aF500
aF500
aF500
aF500
aF500
aF500
aF500
aF500
aF500
aF500
aF500
aF500
aF500
aF500
aF500
aF500
aF500
aF500
aF500
aF500
aF500
aF500
aF500
aF500
aF500
aF500
aF500
aF500
aF500
aF500
aF500
aF500
aF500
aF500
aF500
aF500
aF500
aF500
aF500
aF500
aF500
aF500
aF500
aF500
aF500
aF500
aF500
aF500
aF500
aF500
aF500
aF500
aF500
aF500
aF500
aF500
aF500
aF500
aF500
aF500
aF500
aF500
aF500
aF500
aF500
aF500
aF500
aF500
aF500
aF500
aF500
aF500
aF500
aF500
aF500
aF500
aF500
aF500
aF500
aF500
aF500
aF500
aF500
aF500
aF500
aF500
aI555
aF500
aF500
aF500
aF500
aF500
aF500
aF500
aF500
aF500
aF500
aF500
aF500
aF500
aF500
aF500
aF500
aF500
aF500
aF500
aF500
aF500
aF500
aF500
aF500
aF500
aF500
aF500
aF500
aF500
aF500
aF500
aF500
aF500
aF500
aF500
aF500
aF500
aF500
aF500
aF500
aF500
aF500
aF500
aF500
aF500
aF500
aF500
aF500
aF500
aF500
aF500
aF500
aF500
aF500
aF500
aF500
aF500
aF500
aF500
aF500
aF500
aF500
aF500
aF500
aF500
aF500
aF500
aF500
aF500
aF500
aF500
aF500
aF500
aF500
aF500
aF500
aF500
aF500
aF500
aF500
aF500
aF500
aF500
aF500
aF500
aF500
aF500
aF500
aF500
aF500
aF500
aF500
aF500
aF500
aF500
aF500
aF500
aF500
aF500
aF500
aF500
aF500
aF500
aF500
aF500
aF500
aF500
aF500
aF500
aF500
aF500
aF500
aF500
aF500
aF500
aF500
aF500
aF500
aF500
aF500
aF500
aF500
aF500
aF500
aF500
aF500
aF500
aF500
aF500
aF500
aF500
aF500
aF500
aF500
aF500
aF500
aF500
aF500
aF500
aF500
aF500
aF500
aF500
aF500
aF500
aF500
aF500
aF500
aF500
aF500
aF500
aF500
aF500
aF500
aF500
aF500
aF500
aF500
aF500
aF500
aF500
aF500
aF500
aF500
aF500
aF500
aF500
aF500
aF500
aF500
aF500
aF500
aF500
aF500
aF500
aF500
aF500
aF500
aF500
aF500
aF500
aF500
aF500
aF500
aF500
aF500
aF500
aF500
aF500
aF500
aF500
aF500
aF500
aF500
aF500
aF500
aF500
aF500
aF500
aF500
aF500
aF500
aF500
aF500
aF500
aF500
aF500
aF500
aF500
aF500
aF500
aF500
aF500
aF500
aF500
aF500
aF500
aF500
aF500
aF500
aF500
aF500
aF500
aF500
aF500
aF500
aF500
aF500
aF500
aF500
aF500
aF500
aF500
aF500
aF500
aF500
aF500
aF500
aF500
aF500
aF500
aF500
aF500
aF500
aF500
aF500
aF500
aF500
aF500
aF500
aF500
aF500
aF500
aF500
aF500
aF500
aF500
aF500
aF500
aF500
aF500
aF500
aF500
aF500
aF500
aF500
aF500
aF500
aF500
aF500
aF500
aF500
aF500
aF500
aF500
aF500
aF500
aF500
aF500
aF500
aF500
aF500
aF500
aF500
aF500
aF500
aF500
aF500
aF500
aF500
aF500
aF500
aF500
aF500
aF500
aF500
aF500
aF500
aF500
aF500
aF500
aF500
aF500
aF500
aF500
aF500
aF500
aF500
aF500
aF500
aF500
aF500
aF500
aF500
aF500
aF500
aF500
aF500
aF500
aF500
aF500
aF500
aF500
aF500
aF500
aF500
aF500
aF500
aF500
aF500
aF500
aF500
aF500
aF500
aF500
aF500
aF500
aF500
aF500
aF500
aF500
aF500
aF500
aF500
aF500
aF500
aF500
aF500
aF500
aF500
aF500
aF500
aF500
aF500
aF500
aF500
aF500
aF500
aF500
aF500
aF500
aF500
aF500
aF500
aF500
aF500
aF500
aF500
aF500
aF500
aF500
aF500
aF500
aF500
aF500
aF500
aF500
aF500
aF500
aF500
aF500
aF500
aF500
aF500
aF500
aF500
aF500
aF500
aF500
aF500
aF500
aF500
aF500
aF500
aF500
aF500
aF500
aF500
aF500
aF500
aF500
aF500
aF500
aF500
aF500
aF500
aF500
aF500
aF500
aF500
aF500
aF500
aF500
aF500
aF500
aF500
aF500
aF500
aF500
aF500
aF500
aF500
aF500
aF500
aF500
aF500
aF500
aF500
aF500
aF500
aF500
aF500
aF500
aF500
aF500
aF500
aF500
aF500
aF500
aF500
aF500
aF500
aF500
aF500
aF500
aF500
aF500
aF500
aF500
aF500
aF500
aF500
aF500
aF500
aF500
aF500
aF500
aF500
aF500
aF500
aF500
aF500
aF500
aF500
aF500
aF500
aF500
aF500
aF500
aF500
aF500
aF500
aF500
aF500
aF500
aF500
aF500
aF500
aF500
aF500
aF500
aF500
aF500
aF500
aF500
aF500
aF500
aF500
aF500
aF500
aF500
aF500
aF500
asS'ut'
p8
F0
sS'fontkey'
p9
S'fonty'
p10
sS'type'
p11
S'TTF'
p12
sS'up'
p13
F0
sS'originalsize'
p14
I21060
sS'desc'
p15
(dp16
S'MissingWidth'
p17
I500
sS'StemV'
p18
I87
sS'Flags'
p19
I4
sS'Descent'
p20
I-232
sS'FontBBox'
p21
S'[-15 -251 1032 918]'
p22
sS'CapHeight'
p23
I753
sS'ItalicAngle'
p24
I0
sS'Ascent'
p25
I768
ss.